target datalayout = "e-m:e-p270:32:32-p271:32:32-p272:64:64-i64:64-i128:128-f80:128-n8:16:32:64-S128"
target triple = "x86_64-pc-linux-gnu"

%"class.ceres::HuberLoss" = type { %"class.ceres::LossFunction", double, double }
%"class.ceres::LossFunction" = type { ptr }

; Function Attrs: inlinehint mustprogress nounwind uwtable
define linkonce_odr noundef nonnull align 8 dereferenceable(8) ptr @_ZSt3maxIdERKT_S2_S2_(ptr noundef nonnull align 8 dereferenceable(8) %0, ptr noundef nonnull align 8 dereferenceable(8) %1) #6 comdat {
  %3 = alloca ptr, align 8
  %4 = alloca ptr, align 8
  %5 = alloca ptr, align 8
  store ptr %0, ptr %4, align 8, !tbaa !12
  store ptr %1, ptr %5, align 8, !tbaa !12
  %6 = load ptr, ptr %4, align 8, !tbaa !12
  %7 = load double, ptr %6, align 8, !tbaa !10
  %8 = load ptr, ptr %5, align 8, !tbaa !12
  %9 = load double, ptr %8, align 8, !tbaa !10
  %10 = fcmp olt double %7, %9
  br i1 %10, label %11, label %13

11:                                               ; preds = %2
  %12 = load ptr, ptr %5, align 8, !tbaa !12
  store ptr %12, ptr %3, align 8
  br label %15

13:                                               ; preds = %2
  %14 = load ptr, ptr %4, align 8, !tbaa !12
  store ptr %14, ptr %3, align 8
  br label %15

15:                                               ; preds = %13, %11
  %16 = load ptr, ptr %3, align 8
  ret ptr %16
}

; Function Attrs: mustprogress nounwind uwtable
define linkonce_odr hidden noundef double @_ZNSt14numeric_limitsIdE3minEv() #0 comdat align 2 {
  ret double 0x10000000000000
}

; Function Attrs: mustprogress uwtable
define hidden void @_ZNK5ceres9HuberLoss8EvaluateEdPd(ptr noundef nonnull align 8 dereferenceable(24) %0, double noundef %1, ptr noundef %2) unnamed_addr #2 align 2 {
  %4 = alloca ptr, align 8
  %5 = alloca double, align 8
  %6 = alloca ptr, align 8
  %7 = alloca double, align 8
  %8 = alloca double, align 8
  %9 = alloca double, align 8
  store ptr %0, ptr %4, align 8, !tbaa !14
  store double %1, ptr %5, align 8, !tbaa !10
  store ptr %2, ptr %6, align 8, !tbaa !12
  %10 = load ptr, ptr %4, align 8
  %11 = load double, ptr %5, align 8, !tbaa !10
  %12 = getelementptr inbounds nuw %"class.ceres::HuberLoss", ptr %10, i32 0, i32 2
  %13 = load double, ptr %12, align 8, !tbaa !16
  %14 = fcmp ogt double %11, %13
  br i1 %14, label %15, label %46

15:                                               ; preds = %3
  call void @llvm.lifetime.start.p0(i64 8, ptr %7) #15
  %16 = load double, ptr %5, align 8, !tbaa !10
  %17 = call double @sqrt(double noundef %16) #15, !tbaa !19
  store double %17, ptr %7, align 8, !tbaa !10
  %18 = getelementptr inbounds nuw %"class.ceres::HuberLoss", ptr %10, i32 0, i32 1
  %19 = load double, ptr %18, align 8, !tbaa !21
  %20 = fmul double 2.000000e+00, %19
  %21 = load double, ptr %7, align 8, !tbaa !10
  %22 = getelementptr inbounds nuw %"class.ceres::HuberLoss", ptr %10, i32 0, i32 2
  %23 = load double, ptr %22, align 8, !tbaa !16
  %24 = fneg double %23
  %25 = call double @llvm.fmuladd.f64(double %20, double %21, double %24)
  %26 = load ptr, ptr %6, align 8, !tbaa !12
  %27 = getelementptr inbounds double, ptr %26, i64 0
  store double %25, ptr %27, align 8, !tbaa !10
  call void @llvm.lifetime.start.p0(i64 8, ptr %8) #15
  %28 = call noundef double @_ZNSt14numeric_limitsIdE3minEv() #15
  store double %28, ptr %8, align 8, !tbaa !10
  call void @llvm.lifetime.start.p0(i64 8, ptr %9) #15
  %29 = getelementptr inbounds nuw %"class.ceres::HuberLoss", ptr %10, i32 0, i32 1
  %30 = load double, ptr %29, align 8, !tbaa !21
  %31 = load double, ptr %7, align 8, !tbaa !10
  %32 = fdiv double %30, %31
  store double %32, ptr %9, align 8, !tbaa !10
  %33 = call noundef nonnull align 8 dereferenceable(8) ptr @_ZSt3maxIdERKT_S2_S2_(ptr noundef nonnull align 8 dereferenceable(8) %8, ptr noundef nonnull align 8 dereferenceable(8) %9)
  %34 = load double, ptr %33, align 8, !tbaa !10
  %35 = load ptr, ptr %6, align 8, !tbaa !12
  %36 = getelementptr inbounds double, ptr %35, i64 1
  store double %34, ptr %36, align 8, !tbaa !10
  call void @llvm.lifetime.end.p0(i64 8, ptr %9) #15
  call void @llvm.lifetime.end.p0(i64 8, ptr %8) #15
  %37 = load ptr, ptr %6, align 8, !tbaa !12
  %38 = getelementptr inbounds double, ptr %37, i64 1
  %39 = load double, ptr %38, align 8, !tbaa !10
  %40 = fneg double %39
  %41 = load double, ptr %5, align 8, !tbaa !10
  %42 = fmul double 2.000000e+00, %41
  %43 = fdiv double %40, %42
  %44 = load ptr, ptr %6, align 8, !tbaa !12
  %45 = getelementptr inbounds double, ptr %44, i64 2
  store double %43, ptr %45, align 8, !tbaa !10
  call void @llvm.lifetime.end.p0(i64 8, ptr %7) #15
  br label %54

46:                                               ; preds = %3
  %47 = load double, ptr %5, align 8, !tbaa !10
  %48 = load ptr, ptr %6, align 8, !tbaa !12
  %49 = getelementptr inbounds double, ptr %48, i64 0
  store double %47, ptr %49, align 8, !tbaa !10
  %50 = load ptr, ptr %6, align 8, !tbaa !12
  %51 = getelementptr inbounds double, ptr %50, i64 1
  store double 1.000000e+00, ptr %51, align 8, !tbaa !10
  %52 = load ptr, ptr %6, align 8, !tbaa !12
  %53 = getelementptr inbounds double, ptr %52, i64 2
  store double 0.000000e+00, ptr %53, align 8, !tbaa !10
  br label %54

54:                                               ; preds = %46, %15
  ret void
}