; Function Attrs: mustprogress nofree nounwind willreturn memory(write, argmem: readwrite) uwtable
define hidden void @_ZNK5ceres9HuberLoss8EvaluateEdPd(ptr noundef nonnull readonly align 8 captures(none) dereferenceable(24) %0, double noundef %1, ptr noundef writeonly captures(none) initializes((0, 24)) %2) unnamed_addr #3 align 2 {
  %4 = getelementptr inbounds nuw i8, ptr %0, i64 16
  %5 = load double, ptr %4, align 8, !tbaa !7
  %6 = fcmp ogt double %1, %5
  br i1 %6, label %7, label %20

7:                                                ; preds = %3
  %8 = tail call double @sqrt(double noundef %1) #17, !tbaa !10
  %9 = getelementptr inbounds nuw i8, ptr %0, i64 8
  %10 = load double, ptr %9, align 8, !tbaa !12
  %11 = fmul double %10, 2.000000e+00
  %12 = fneg double %5
  %13 = tail call double @llvm.fmuladd.f64(double %11, double %8, double %12)
  store double %13, ptr %2, align 8, !tbaa !3
  %14 = load double, ptr %9, align 8, !tbaa !12
  %15 = fdiv double %14, %8
  %16 = fcmp ogt double %15, 0x10000000000000
  %.sroa.speculated = select i1 %16, double %15, double 0x10000000000000
  %17 = fneg double %.sroa.speculated
  %18 = fmul double %1, 2.000000e+00
  %19 = fdiv double %17, %18
  br label %21

20:                                               ; preds = %3
  store double %1, ptr %2, align 8, !tbaa !3
  br label %21

21:                                               ; preds = %20, %7
  %.sink14 = phi double [ %.sroa.speculated, %7 ], [ 1.000000e+00, %20 ]
  %.sink = phi double [ %19, %7 ], [ 0.000000e+00, %20 ]
  %22 = getelementptr inbounds nuw i8, ptr %2, i64 8
  store double %.sink14, ptr %22, align 8, !tbaa !3
  %23 = getelementptr inbounds nuw i8, ptr %2, i64 16
  store double %.sink, ptr %23, align 8, !tbaa !3
  ret void
}